target datalayout = "e-m:e-p270:32:32-p271:32:32-p272:64:64-i64:64-i128:128-f80:128-n8:16:32:64-S128"
target triple = "x86_64-pc-linux-gnu"

%struct.Rwt_Node_t_ = type { i32, i32, i32, ptr, ptr, ptr }
%struct.Rwt_Man_t_ = type { i32, ptr, ptr, ptr, ptr, ptr, ptr, ptr, ptr, ptr, ptr, ptr, i32, i32, i32, i32, i32, ptr, ptr, ptr, ptr, ptr, ptr, ptr, i32, i32, i32, [222 x i32], i32, i32, i32, i64, i64, i64, i64, i64, i64, i64, i64 }

; Function Attrs: inlinehint nounwind uwtable
define internal ptr @Rwt_Regular(ptr noundef %0) #3 {
  %2 = alloca ptr, align 8
  store ptr %0, ptr %2, align 8, !tbaa !8
  %3 = load ptr, ptr %2, align 8, !tbaa !8
  %4 = ptrtoint ptr %3 to i64
  %5 = and i64 %4, -2
  %6 = inttoptr i64 %5 to ptr
  ret ptr %6
}

; Function Attrs: nounwind uwtable
define void @Rwt_Trav_rec(ptr noundef %0, ptr noundef %1, ptr noundef %2) #0 {
  %4 = alloca ptr, align 8
  %5 = alloca ptr, align 8
  %6 = alloca ptr, align 8
  store ptr %0, ptr %4, align 8, !tbaa !15
  store ptr %1, ptr %5, align 8, !tbaa !8
  store ptr %2, ptr %6, align 8, !tbaa !46
  %7 = load ptr, ptr %5, align 8, !tbaa !8
  %8 = getelementptr inbounds nuw %struct.Rwt_Node_t_, ptr %7, i32 0, i32 2
  %9 = load i32, ptr %8, align 8
  %10 = lshr i32 %9, 30
  %11 = and i32 %10, 1
  %12 = icmp ne i32 %11, 0
  br i1 %12, label %21, label %13

13:                                               ; preds = %3
  %14 = load ptr, ptr %5, align 8, !tbaa !8
  %15 = getelementptr inbounds nuw %struct.Rwt_Node_t_, ptr %14, i32 0, i32 1
  %16 = load i32, ptr %15, align 4, !tbaa !32
  %17 = load ptr, ptr %4, align 8, !tbaa !15
  %18 = getelementptr inbounds nuw %struct.Rwt_Man_t_, ptr %17, i32 0, i32 12
  %19 = load i32, ptr %18, align 8, !tbaa !48
  %20 = icmp eq i32 %16, %19
  br i1 %20, label %21, label %22

21:                                               ; preds = %13, %3
  br label %53

22:                                               ; preds = %13
  %23 = load ptr, ptr %4, align 8, !tbaa !15
  %24 = getelementptr inbounds nuw %struct.Rwt_Man_t_, ptr %23, i32 0, i32 12
  %25 = load i32, ptr %24, align 8, !tbaa !48
  %26 = load ptr, ptr %5, align 8, !tbaa !8
  %27 = getelementptr inbounds nuw %struct.Rwt_Node_t_, ptr %26, i32 0, i32 1
  store i32 %25, ptr %27, align 4, !tbaa !32
  %28 = load ptr, ptr %6, align 8, !tbaa !46
  %29 = load i32, ptr %28, align 4, !tbaa !17
  %30 = add nsw i32 %29, 1
  store i32 %30, ptr %28, align 4, !tbaa !17
  %31 = load ptr, ptr %5, align 8, !tbaa !8
  %32 = getelementptr inbounds nuw %struct.Rwt_Node_t_, ptr %31, i32 0, i32 2
  %33 = load i32, ptr %32, align 8
  %34 = lshr i32 %33, 31
  %35 = icmp ne i32 %34, 0
  br i1 %35, label %36, label %40

36:                                               ; preds = %22
  %37 = load ptr, ptr %6, align 8, !tbaa !46
  %38 = load i32, ptr %37, align 4, !tbaa !17
  %39 = add nsw i32 %38, 1
  store i32 %39, ptr %37, align 4, !tbaa !17
  br label %40

40:                                               ; preds = %36, %22
  %41 = load ptr, ptr %4, align 8, !tbaa !15
  %42 = load ptr, ptr %5, align 8, !tbaa !8
  %43 = getelementptr inbounds nuw %struct.Rwt_Node_t_, ptr %42, i32 0, i32 3
  %44 = load ptr, ptr %43, align 8, !tbaa !33
  %45 = call ptr @Rwt_Regular(ptr noundef %44)
  %46 = load ptr, ptr %6, align 8, !tbaa !46
  call void @Rwt_Trav_rec(ptr noundef %41, ptr noundef %45, ptr noundef %46)
  %47 = load ptr, ptr %4, align 8, !tbaa !15
  %48 = load ptr, ptr %5, align 8, !tbaa !8
  %49 = getelementptr inbounds nuw %struct.Rwt_Node_t_, ptr %48, i32 0, i32 4
  %50 = load ptr, ptr %49, align 8, !tbaa !34
  %51 = call ptr @Rwt_Regular(ptr noundef %50)
  %52 = load ptr, ptr %6, align 8, !tbaa !46
  call void @Rwt_Trav_rec(ptr noundef %47, ptr noundef %51, ptr noundef %52)
  br label %53

53:                                               ; preds = %40, %21
  ret void
}